; Function Attrs: mustprogress uwtable
define hidden void @_ZN9spacer_qe3peq3rhsER7obj_refI4expr11ast_managerE(ptr nocapture noundef nonnull readonly align 8 dereferenceable(128) %this, ptr nocapture noundef nonnull align 8 dereferenceable(16) %result) local_unnamed_addr #3 align 2 {
entry:
  %m_rhs = getelementptr inbounds i8, ptr %this, i64 24
  %0 = load ptr, ptr %result, align 8
  %1 = load ptr, ptr %m_rhs, align 8
  %cmp.not.i = icmp eq ptr %0, %1
  br i1 %cmp.not.i, label %_ZN7obj_refI4expr11ast_managerEaSERKS2_.exit, label %if.then.i

if.then.i:                                        ; preds = %entry
  %tobool.not.i.i = icmp eq ptr %0, null
  br i1 %tobool.not.i.i, label %_ZN7obj_refI4expr11ast_managerE7dec_refEv.exit.i, label %if.then.i.i.i

if.then.i.i.i:                                    ; preds = %if.then.i
  %m_manager.i.i = getelementptr inbounds i8, ptr %result, i64 8
  %2 = load ptr, ptr %m_manager.i.i, align 8
  %m_ref_count.i.i.i.i = getelementptr inbounds i8, ptr %0, i64 8
  %3 = load i32, ptr %m_ref_count.i.i.i.i, align 4
  %dec.i.i.i.i = add i32 %3, -1
  store i32 %dec.i.i.i.i, ptr %m_ref_count.i.i.i.i, align 4
  %cmp.i.i.i = icmp eq i32 %dec.i.i.i.i, 0
  br i1 %cmp.i.i.i, label %if.then2.i.i.i, label %_ZN7obj_refI4expr11ast_managerE7dec_refEv.exitthread-pre-split.i

if.then2.i.i.i:                                   ; preds = %if.then.i.i.i
  tail call void @_ZN11ast_manager11delete_nodeEP3ast(ptr noundef nonnull align 8 dereferenceable(976) %2, ptr noundef nonnull %0)
  br label %_ZN7obj_refI4expr11ast_managerE7dec_refEv.exitthread-pre-split.i

_ZN7obj_refI4expr11ast_managerE7dec_refEv.exitthread-pre-split.i: ; preds = %if.then2.i.i.i, %if.then.i.i.i
  %.pr.i = load ptr, ptr %m_rhs, align 8
  br label %_ZN7obj_refI4expr11ast_managerE7dec_refEv.exit.i

_ZN7obj_refI4expr11ast_managerE7dec_refEv.exit.i: ; preds = %_ZN7obj_refI4expr11ast_managerE7dec_refEv.exitthread-pre-split.i, %if.then.i
  %4 = phi ptr [ %.pr.i, %_ZN7obj_refI4expr11ast_managerE7dec_refEv.exitthread-pre-split.i ], [ %1, %if.then.i ]
  store ptr %4, ptr %result, align 8
  %tobool.not.i2.i = icmp eq ptr %4, null
  br i1 %tobool.not.i2.i, label %_ZN7obj_refI4expr11ast_managerEaSERKS2_.exit, label %_ZN11ast_manager7inc_refEP3ast.exit.i.i

_ZN11ast_manager7inc_refEP3ast.exit.i.i:          ; preds = %_ZN7obj_refI4expr11ast_managerE7dec_refEv.exit.i
  %m_ref_count.i.i.i3.i = getelementptr inbounds i8, ptr %4, i64 8
  %5 = load i32, ptr %m_ref_count.i.i.i3.i, align 4
  %inc.i.i.i.i = add i32 %5, 1
  store i32 %inc.i.i.i.i, ptr %m_ref_count.i.i.i3.i, align 4
  br label %_ZN7obj_refI4expr11ast_managerEaSERKS2_.exit

_ZN7obj_refI4expr11ast_managerEaSERKS2_.exit:     ; preds = %entry, %_ZN7obj_refI4expr11ast_managerE7dec_refEv.exit.i, %_ZN11ast_manager7inc_refEP3ast.exit.i.i
  ret void
}